; Function Attrs: mustprogress uwtable
define hidden void @_ZN7datalog7context8add_factEP9func_declRKNS_13relation_factE(ptr noundef nonnull align 8 dereferenceable(3556) %this, ptr noundef %pred, ptr noundef nonnull align 8 dereferenceable(16) %fact) local_unnamed_addr #3 align 2 personality ptr @__gxx_personality_v0 {
entry:
  %rule = alloca %class.obj_ref, align 8
  tail call void @_ZN7datalog7context16configure_engineEP4expr(ptr noundef nonnull align 8 dereferenceable(3556) %this, ptr noundef null)
  %m_engine_type.i = getelementptr inbounds i8, ptr %this, i64 3552
  %0 = load i32, ptr %m_engine_type.i, align 8
  %cmp = icmp eq i32 %0, 0
  br i1 %cmp, label %if.then, label %if.else

if.then:                                          ; preds = %entry
  tail call void @_ZN7datalog7context13ensure_engineEP4expr(ptr noundef nonnull align 8 dereferenceable(3556) %this, ptr noundef null)
  %m_rel = getelementptr inbounds i8, ptr %this, i64 3496
  %1 = load ptr, ptr %m_rel, align 8
  %vtable = load ptr, ptr %1, align 8
  %vfn = getelementptr inbounds i8, ptr %vtable, i64 272
  %2 = load ptr, ptr %vfn, align 8
  tail call void %2(ptr noundef nonnull align 8 dereferenceable(48) %1, ptr noundef %pred, ptr noundef nonnull align 8 dereferenceable(16) %fact)
  br label %if.end

if.else:                                          ; preds = %entry
  %3 = load ptr, ptr %this, align 8
  %m_nodes.i = getelementptr inbounds i8, ptr %fact, i64 8
  %4 = load ptr, ptr %m_nodes.i, align 8
  %cmp.i.i = icmp eq ptr %4, null
  br i1 %cmp.i.i, label %_ZNK15ref_vector_coreI3app19ref_manager_wrapperIS0_11ast_managerEE4sizeEv.exit, label %if.end.i.i

if.end.i.i:                                       ; preds = %if.else
  %arrayidx.i.i = getelementptr inbounds i8, ptr %4, i64 -4
  %5 = load i32, ptr %arrayidx.i.i, align 4
  br label %_ZNK15ref_vector_coreI3app19ref_manager_wrapperIS0_11ast_managerEE4sizeEv.exit

_ZNK15ref_vector_coreI3app19ref_manager_wrapperIS0_11ast_managerEE4sizeEv.exit: ; preds = %if.else, %if.end.i.i
  %retval.0.i.i = phi i32 [ %5, %if.end.i.i ], [ 0, %if.else ]
  %call4 = tail call noundef ptr @_ZN11ast_manager6mk_appEP9func_decljPKP4expr(ptr noundef nonnull align 8 dereferenceable(976) %3, ptr noundef %pred, i32 noundef %retval.0.i.i, ptr noundef %4)
  %6 = load ptr, ptr %this, align 8
  store ptr %call4, ptr %rule, align 8
  %m_manager.i = getelementptr inbounds i8, ptr %rule, i64 8
  store ptr %6, ptr %m_manager.i, align 8
  %tobool.not.i.i = icmp eq ptr %call4, null
  br i1 %tobool.not.i.i, label %_ZN7obj_refI4expr11ast_managerEC2EPS0_RS1_.exit, label %_ZN11ast_manager7inc_refEP3ast.exit.i.i

_ZN11ast_manager7inc_refEP3ast.exit.i.i:          ; preds = %_ZNK15ref_vector_coreI3app19ref_manager_wrapperIS0_11ast_managerEE4sizeEv.exit
  %m_ref_count.i.i.i.i = getelementptr inbounds i8, ptr %call4, i64 8
  %7 = load i32, ptr %m_ref_count.i.i.i.i, align 4
  %inc.i.i.i.i = add i32 %7, 1
  store i32 %inc.i.i.i.i, ptr %m_ref_count.i.i.i.i, align 4
  br label %_ZN7obj_refI4expr11ast_managerEC2EPS0_RS1_.exit

_ZN7obj_refI4expr11ast_managerEC2EPS0_RS1_.exit:  ; preds = %_ZNK15ref_vector_coreI3app19ref_manager_wrapperIS0_11ast_managerEE4sizeEv.exit, %_ZN11ast_manager7inc_refEP3ast.exit.i.i
  invoke void @_ZN7datalog7context8add_ruleEP4exprRK6symbolj(ptr noundef nonnull align 8 dereferenceable(3556) %this, ptr noundef %call4, ptr noundef nonnull align 8 dereferenceable(8) @_ZN6symbol4nullE, i32 noundef -1)
          to label %invoke.cont7 unwind label %lpad

invoke.cont7:                                     ; preds = %_ZN7obj_refI4expr11ast_managerEC2EPS0_RS1_.exit
  br i1 %tobool.not.i.i, label %if.end, label %if.then.i.i.i

if.then.i.i.i:                                    ; preds = %invoke.cont7
  %m_ref_count.i.i.i.i6 = getelementptr inbounds i8, ptr %call4, i64 8
  %8 = load i32, ptr %m_ref_count.i.i.i.i6, align 4
  %dec.i.i.i.i = add i32 %8, -1
  store i32 %dec.i.i.i.i, ptr %m_ref_count.i.i.i.i6, align 4
  %cmp.i.i.i = icmp eq i32 %dec.i.i.i.i, 0
  br i1 %cmp.i.i.i, label %if.then2.i.i.i, label %if.end

if.then2.i.i.i:                                   ; preds = %if.then.i.i.i
  invoke void @_ZN11ast_manager11delete_nodeEP3ast(ptr noundef nonnull align 8 dereferenceable(976) %6, ptr noundef nonnull %call4)
          to label %if.end unwind label %terminate.lpad.i

terminate.lpad.i:                                 ; preds = %if.then2.i.i.i
  %9 = landingpad { ptr, i32 }
          catch ptr null
  %10 = extractvalue { ptr, i32 } %9, 0
  tail call void @__clang_call_terminate(ptr %10) #27
  unreachable

lpad:                                             ; preds = %_ZN7obj_refI4expr11ast_managerEC2EPS0_RS1_.exit
  %11 = landingpad { ptr, i32 }
          cleanup
  call void @_ZN7obj_refI4expr11ast_managerED2Ev(ptr noundef nonnull align 8 dereferenceable(16) %rule) #25
  resume { ptr, i32 } %11

if.end:                                           ; preds = %if.then2.i.i.i, %if.then.i.i.i, %invoke.cont7, %if.then
  ret void
}